
main:     file format elf64-x86-64


Disassembly of section .init:

0000000000400540 <_init>:
  400540:	48 83 ec 08          	sub    rsp,0x8
  400544:	48 8b 05 dd 07 20 00 	mov    rax,QWORD PTR [rip+0x2007dd]        # 600d28 <_DYNAMIC+0x1e0>
  40054b:	48 85 c0             	test   rax,rax
  40054e:	74 05                	je     400555 <_init+0x15>
  400550:	e8 6b 00 00 00       	call   4005c0 <floorf@plt+0x10>
  400555:	48 83 c4 08          	add    rsp,0x8
  400559:	c3                   	ret    

Disassembly of section .plt:

0000000000400560 <printf@plt-0x10>:
  400560:	ff 35 d2 07 20 00    	push   QWORD PTR [rip+0x2007d2]        # 600d38 <_GLOBAL_OFFSET_TABLE_+0x8>
  400566:	ff 25 d4 07 20 00    	jmp    QWORD PTR [rip+0x2007d4]        # 600d40 <_GLOBAL_OFFSET_TABLE_+0x10>
  40056c:	0f 1f 40 00          	nop    DWORD PTR [rax+0x0]

0000000000400570 <printf@plt>:
  400570:	ff 25 d2 07 20 00    	jmp    QWORD PTR [rip+0x2007d2]        # 600d48 <_GLOBAL_OFFSET_TABLE_+0x18>
  400576:	68 00 00 00 00       	push   0x0
  40057b:	e9 e0 ff ff ff       	jmp    400560 <_init+0x20>

0000000000400580 <__libc_start_main@plt>:
  400580:	ff 25 ca 07 20 00    	jmp    QWORD PTR [rip+0x2007ca]        # 600d50 <_GLOBAL_OFFSET_TABLE_+0x20>
  400586:	68 01 00 00 00       	push   0x1
  40058b:	e9 d0 ff ff ff       	jmp    400560 <_init+0x20>

0000000000400590 <fgets@plt>:
  400590:	ff 25 c2 07 20 00    	jmp    QWORD PTR [rip+0x2007c2]        # 600d58 <_GLOBAL_OFFSET_TABLE_+0x28>
  400596:	68 02 00 00 00       	push   0x2
  40059b:	e9 c0 ff ff ff       	jmp    400560 <_init+0x20>

00000000004005a0 <sscanf@plt>:
  4005a0:	ff 25 ba 07 20 00    	jmp    QWORD PTR [rip+0x2007ba]        # 600d60 <_GLOBAL_OFFSET_TABLE_+0x30>
  4005a6:	68 03 00 00 00       	push   0x3
  4005ab:	e9 b0 ff ff ff       	jmp    400560 <_init+0x20>

00000000004005b0 <floorf@plt>:
  4005b0:	ff 25 b2 07 20 00    	jmp    QWORD PTR [rip+0x2007b2]        # 600d68 <_GLOBAL_OFFSET_TABLE_+0x38>
  4005b6:	68 04 00 00 00       	push   0x4
  4005bb:	e9 a0 ff ff ff       	jmp    400560 <_init+0x20>

Disassembly of section .plt.got:

00000000004005c0 <.plt.got>:
  4005c0:	ff 25 62 07 20 00    	jmp    QWORD PTR [rip+0x200762]        # 600d28 <_DYNAMIC+0x1e0>
  4005c6:	66 90                	xchg   ax,ax

Disassembly of section .text:

00000000004005d0 <_start>:
  4005d0:	31 ed                	xor    ebp,ebp
  4005d2:	49 89 d1             	mov    r9,rdx
  4005d5:	5e                   	pop    rsi
  4005d6:	48 89 e2             	mov    rdx,rsp
  4005d9:	48 83 e4 f0          	and    rsp,0xfffffffffffffff0
  4005dd:	50                   	push   rax
  4005de:	54                   	push   rsp
  4005df:	49 c7 c0 c0 08 40 00 	mov    r8,0x4008c0
  4005e6:	48 c7 c1 50 08 40 00 	mov    rcx,0x400850
  4005ed:	48 c7 c7 c6 06 40 00 	mov    rdi,0x4006c6
  4005f4:	e8 87 ff ff ff       	call   400580 <__libc_start_main@plt>
  4005f9:	f4                   	hlt    
  4005fa:	66 0f 1f 44 00 00    	nop    WORD PTR [rax+rax*1+0x0]

0000000000400600 <deregister_tm_clones>:
  400600:	b8 87 0d 60 00       	mov    eax,0x600d87
  400605:	55                   	push   rbp
  400606:	48 2d 80 0d 60 00    	sub    rax,0x600d80
  40060c:	48 83 f8 0e          	cmp    rax,0xe
  400610:	48 89 e5             	mov    rbp,rsp
  400613:	76 1b                	jbe    400630 <deregister_tm_clones+0x30>
  400615:	b8 00 00 00 00       	mov    eax,0x0
  40061a:	48 85 c0             	test   rax,rax
  40061d:	74 11                	je     400630 <deregister_tm_clones+0x30>
  40061f:	5d                   	pop    rbp
  400620:	bf 80 0d 60 00       	mov    edi,0x600d80
  400625:	ff e0                	jmp    rax
  400627:	66 0f 1f 84 00 00 00 	nop    WORD PTR [rax+rax*1+0x0]
  40062e:	00 00 
  400630:	5d                   	pop    rbp
  400631:	c3                   	ret    
  400632:	0f 1f 40 00          	nop    DWORD PTR [rax+0x0]
  400636:	66 2e 0f 1f 84 00 00 	nop    WORD PTR cs:[rax+rax*1+0x0]
  40063d:	00 00 00 

0000000000400640 <register_tm_clones>:
  400640:	be 80 0d 60 00       	mov    esi,0x600d80
  400645:	55                   	push   rbp
  400646:	48 81 ee 80 0d 60 00 	sub    rsi,0x600d80
  40064d:	48 c1 fe 03          	sar    rsi,0x3
  400651:	48 89 e5             	mov    rbp,rsp
  400654:	48 89 f0             	mov    rax,rsi
  400657:	48 c1 e8 3f          	shr    rax,0x3f
  40065b:	48 01 c6             	add    rsi,rax
  40065e:	48 d1 fe             	sar    rsi,1
  400661:	74 15                	je     400678 <register_tm_clones+0x38>
  400663:	b8 00 00 00 00       	mov    eax,0x0
  400668:	48 85 c0             	test   rax,rax
  40066b:	74 0b                	je     400678 <register_tm_clones+0x38>
  40066d:	5d                   	pop    rbp
  40066e:	bf 80 0d 60 00       	mov    edi,0x600d80
  400673:	ff e0                	jmp    rax
  400675:	0f 1f 00             	nop    DWORD PTR [rax]
  400678:	5d                   	pop    rbp
  400679:	c3                   	ret    
  40067a:	66 0f 1f 44 00 00    	nop    WORD PTR [rax+rax*1+0x0]

0000000000400680 <__do_global_dtors_aux>:
  400680:	80 3d 01 07 20 00 00 	cmp    BYTE PTR [rip+0x200701],0x0        # 600d88 <completed.6936>
  400687:	75 11                	jne    40069a <__do_global_dtors_aux+0x1a>
  400689:	55                   	push   rbp
  40068a:	48 89 e5             	mov    rbp,rsp
  40068d:	e8 6e ff ff ff       	call   400600 <deregister_tm_clones>
  400692:	5d                   	pop    rbp
  400693:	c6 05 ee 06 20 00 01 	mov    BYTE PTR [rip+0x2006ee],0x1        # 600d88 <completed.6936>
  40069a:	f3 c3                	repz ret 
  40069c:	0f 1f 40 00          	nop    DWORD PTR [rax+0x0]

00000000004006a0 <frame_dummy>:
  4006a0:	bf 40 0b 60 00       	mov    edi,0x600b40
  4006a5:	48 83 3f 00          	cmp    QWORD PTR [rdi],0x0
  4006a9:	75 05                	jne    4006b0 <frame_dummy+0x10>
  4006ab:	eb 93                	jmp    400640 <register_tm_clones>
  4006ad:	0f 1f 00             	nop    DWORD PTR [rax]
  4006b0:	b8 00 00 00 00       	mov    eax,0x0
  4006b5:	48 85 c0             	test   rax,rax
  4006b8:	74 f1                	je     4006ab <frame_dummy+0xb>
  4006ba:	55                   	push   rbp
  4006bb:	48 89 e5             	mov    rbp,rsp
  4006be:	ff d0                	call   rax
  4006c0:	5d                   	pop    rbp
  4006c1:	e9 7a ff ff ff       	jmp    400640 <register_tm_clones>

00000000004006c6 <main>:
  4006c6:	55                   	push   rbp
  4006c7:	53                   	push   rbx
  4006c8:	48 83 ec 18          	sub    rsp,0x18
  4006cc:	c7 44 24 0c 00 00 00 	mov    DWORD PTR [rsp+0xc],0x0
  4006d3:	00 
  4006d4:	c7 44 24 08 00 00 00 	mov    DWORD PTR [rsp+0x8],0x0
  4006db:	00 
  4006dc:	c7 44 24 04 00 00 00 	mov    DWORD PTR [rsp+0x4],0x0
  4006e3:	00 
  4006e4:	48 8d 74 24 0c       	lea    rsi,[rsp+0xc]
  4006e9:	bf d8 08 40 00       	mov    edi,0x4008d8
  4006ee:	e8 9c 00 00 00       	call   40078f <read_int>
  4006f3:	48 8d 74 24 08       	lea    rsi,[rsp+0x8]
  4006f8:	bf f8 08 40 00       	mov    edi,0x4008f8
  4006fd:	e8 8d 00 00 00       	call   40078f <read_int>
  400702:	48 8d 74 24 04       	lea    rsi,[rsp+0x4]
  400707:	bf 60 09 40 00       	mov    edi,0x400960
  40070c:	e8 db 00 00 00       	call   4007ec <read_float>
  400711:	f3 0f 10 44 24 04    	movss  xmm0,DWORD PTR [rsp+0x4]
  400717:	0f 28 c8             	movaps xmm1,xmm0
  40071a:	f3 0f 5e 0d 66 02 00 	divss  xmm1,DWORD PTR [rip+0x266]        # 400988 <_IO_stdin_used+0xb8>
  400721:	00 
  400722:	f3 0f 11 4c 24 04    	movss  DWORD PTR [rsp+0x4],xmm1
  400728:	8b 5c 24 0c          	mov    ebx,DWORD PTR [rsp+0xc]
  40072c:	0f af 5c 24 08       	imul   ebx,DWORD PTR [rsp+0x8]
  400731:	66 0f ef c0          	pxor   xmm0,xmm0
  400735:	f3 0f 2a c3          	cvtsi2ss xmm0,ebx
  400739:	f3 0f 59 c1          	mulss  xmm0,xmm1
  40073d:	f3 0f 58 05 47 02 00 	addss  xmm0,DWORD PTR [rip+0x247]        # 40098c <_IO_stdin_used+0xbc>
  400744:	00 
  400745:	e8 66 fe ff ff       	call   4005b0 <floorf@plt>
  40074a:	f3 0f 2c e8          	cvttss2si ebp,xmm0
  40074e:	89 de                	mov    esi,ebx
  400750:	bf 20 09 40 00       	mov    edi,0x400920
  400755:	b8 00 00 00 00       	mov    eax,0x0
  40075a:	e8 11 fe ff ff       	call   400570 <printf@plt>
  40075f:	29 eb                	sub    ebx,ebp
  400761:	89 de                	mov    esi,ebx
  400763:	bf 40 09 40 00       	mov    edi,0x400940
  400768:	b8 00 00 00 00       	mov    eax,0x0
  40076d:	e8 fe fd ff ff       	call   400570 <printf@plt>
  400772:	89 ee                	mov    esi,ebp
  400774:	bf 72 09 40 00       	mov    edi,0x400972
  400779:	b8 00 00 00 00       	mov    eax,0x0
  40077e:	e8 ed fd ff ff       	call   400570 <printf@plt>
  400783:	b8 00 00 00 00       	mov    eax,0x0
  400788:	48 83 c4 18          	add    rsp,0x18
  40078c:	5b                   	pop    rbx
  40078d:	5d                   	pop    rbp
  40078e:	c3                   	ret    

000000000040078f <read_int>:
  40078f:	55                   	push   rbp
  400790:	53                   	push   rbx
  400791:	48 83 ec 48          	sub    rsp,0x48
  400795:	48 89 fd             	mov    rbp,rdi
  400798:	48 89 f3             	mov    rbx,rsi
  40079b:	48 89 e7             	mov    rdi,rsp
  40079e:	b9 08 00 00 00       	mov    ecx,0x8
  4007a3:	b8 00 00 00 00       	mov    eax,0x0
  4007a8:	f3 48 ab             	rep stos QWORD PTR es:[rdi],rax
  4007ab:	48 89 ef             	mov    rdi,rbp
  4007ae:	b8 00 00 00 00       	mov    eax,0x0
  4007b3:	e8 b8 fd ff ff       	call   400570 <printf@plt>
  4007b8:	48 8b 15 c1 05 20 00 	mov    rdx,QWORD PTR [rip+0x2005c1]        # 600d80 <__TMC_END__>
  4007bf:	be 40 00 00 00       	mov    esi,0x40
  4007c4:	48 89 e7             	mov    rdi,rsp
  4007c7:	e8 c4 fd ff ff       	call   400590 <fgets@plt>
  4007cc:	48 89 da             	mov    rdx,rbx
  4007cf:	be 90 09 40 00       	mov    esi,0x400990
  4007d4:	48 89 e7             	mov    rdi,rsp
  4007d7:	b8 00 00 00 00       	mov    eax,0x0
  4007dc:	e8 bf fd ff ff       	call   4005a0 <sscanf@plt>
  4007e1:	85 c0                	test   eax,eax
  4007e3:	74 c6                	je     4007ab <read_int+0x1c>
  4007e5:	48 83 c4 48          	add    rsp,0x48
  4007e9:	5b                   	pop    rbx
  4007ea:	5d                   	pop    rbp
  4007eb:	c3                   	ret    

00000000004007ec <read_float>:
  4007ec:	55                   	push   rbp
  4007ed:	53                   	push   rbx
  4007ee:	48 83 ec 48          	sub    rsp,0x48
  4007f2:	48 89 fd             	mov    rbp,rdi
  4007f5:	48 89 f3             	mov    rbx,rsi
  4007f8:	48 89 e7             	mov    rdi,rsp
  4007fb:	b9 08 00 00 00       	mov    ecx,0x8
  400800:	b8 00 00 00 00       	mov    eax,0x0
  400805:	f3 48 ab             	rep stos QWORD PTR es:[rdi],rax
  400808:	48 89 ef             	mov    rdi,rbp
  40080b:	b8 00 00 00 00       	mov    eax,0x0
  400810:	e8 5b fd ff ff       	call   400570 <printf@plt>
  400815:	48 8b 15 64 05 20 00 	mov    rdx,QWORD PTR [rip+0x200564]        # 600d80 <__TMC_END__>
  40081c:	be 40 00 00 00       	mov    esi,0x40
  400821:	48 89 e7             	mov    rdi,rsp
  400824:	e8 67 fd ff ff       	call   400590 <fgets@plt>
  400829:	48 89 da             	mov    rdx,rbx
  40082c:	be 93 09 40 00       	mov    esi,0x400993
  400831:	48 89 e7             	mov    rdi,rsp
  400834:	b8 00 00 00 00       	mov    eax,0x0
  400839:	e8 62 fd ff ff       	call   4005a0 <sscanf@plt>
  40083e:	85 c0                	test   eax,eax
  400840:	74 c6                	je     400808 <read_float+0x1c>
  400842:	48 83 c4 48          	add    rsp,0x48
  400846:	5b                   	pop    rbx
  400847:	5d                   	pop    rbp
  400848:	c3                   	ret    
  400849:	0f 1f 80 00 00 00 00 	nop    DWORD PTR [rax+0x0]

0000000000400850 <__libc_csu_init>:
  400850:	41 57                	push   r15
  400852:	41 56                	push   r14
  400854:	41 89 ff             	mov    r15d,edi
  400857:	41 55                	push   r13
  400859:	41 54                	push   r12
  40085b:	4c 8d 25 ce 02 20 00 	lea    r12,[rip+0x2002ce]        # 600b30 <__frame_dummy_init_array_entry>
  400862:	55                   	push   rbp
  400863:	48 8d 2d ce 02 20 00 	lea    rbp,[rip+0x2002ce]        # 600b38 <__init_array_end>
  40086a:	53                   	push   rbx
  40086b:	49 89 f6             	mov    r14,rsi
  40086e:	49 89 d5             	mov    r13,rdx
  400871:	4c 29 e5             	sub    rbp,r12
  400874:	48 83 ec 08          	sub    rsp,0x8
  400878:	48 c1 fd 03          	sar    rbp,0x3
  40087c:	e8 bf fc ff ff       	call   400540 <_init>
  400881:	48 85 ed             	test   rbp,rbp
  400884:	74 20                	je     4008a6 <__libc_csu_init+0x56>
  400886:	31 db                	xor    ebx,ebx
  400888:	0f 1f 84 00 00 00 00 	nop    DWORD PTR [rax+rax*1+0x0]
  40088f:	00 
  400890:	4c 89 ea             	mov    rdx,r13
  400893:	4c 89 f6             	mov    rsi,r14
  400896:	44 89 ff             	mov    edi,r15d
  400899:	41 ff 14 dc          	call   QWORD PTR [r12+rbx*8]
  40089d:	48 83 c3 01          	add    rbx,0x1
  4008a1:	48 39 dd             	cmp    rbp,rbx
  4008a4:	75 ea                	jne    400890 <__libc_csu_init+0x40>
  4008a6:	48 83 c4 08          	add    rsp,0x8
  4008aa:	5b                   	pop    rbx
  4008ab:	5d                   	pop    rbp
  4008ac:	41 5c                	pop    r12
  4008ae:	41 5d                	pop    r13
  4008b0:	41 5e                	pop    r14
  4008b2:	41 5f                	pop    r15
  4008b4:	c3                   	ret    
  4008b5:	90                   	nop
  4008b6:	66 2e 0f 1f 84 00 00 	nop    WORD PTR cs:[rax+rax*1+0x0]
  4008bd:	00 00 00 

00000000004008c0 <__libc_csu_fini>:
  4008c0:	f3 c3                	repz ret 

Disassembly of section .fini:

00000000004008c4 <_fini>:
  4008c4:	48 83 ec 08          	sub    rsp,0x8
  4008c8:	48 83 c4 08          	add    rsp,0x8
  4008cc:	c3                   	ret    
